(i__main__
student
p0
(dp1
S'marks1'
p2
F12.0
sS'marks2'
p3
F11.0
sS'marks3'
p4
F44.0
sS'name'
p5
S'Pranay'
p6
sS'rollno'
p7
I12
sb.(i__main__
student
p0
(dp1
S'marks1'
p2
F99.0
sS'marks2'
p3
F22.0
sS'marks3'
p4
F53.0
sS'name'
p5
S'Trisha'
p6
sS'rollno'
p7
I15
sb.